; Function Attrs: mustprogress nounwind uwtable
define dso_local noundef nonnull align 8 dereferenceable(24) ptr @_ZNO5vcpkg4Json5Value5arrayENS_8LineInfoE(ptr nocapture noundef nonnull readonly align 8 dereferenceable(8) %0, i32 %1, ptr %2) local_unnamed_addr #1 align 2 personality ptr @__gxx_personality_v0 {
  %4 = alloca %"struct.vcpkg::LocalizedString", align 8
  %5 = alloca %"struct.vcpkg::LineInfo", align 8
  call void @llvm.lifetime.start.p0(i64 16, ptr nonnull %5)
  store i32 %1, ptr %5, align 8
  %6 = getelementptr inbounds i8, ptr %5, i64 8
  store ptr %2, ptr %6, align 8
  %7 = load ptr, ptr %0, align 8
  %.not.i.i.i = icmp eq ptr %7, null
  br i1 %.not.i.i.i, label %_ZNK5vcpkg4Json5Value8is_arrayEv.exit.thread.i, label %_ZNK5vcpkg4Json5Value8is_arrayEv.exit.i

_ZNK5vcpkg4Json5Value8is_arrayEv.exit.thread.i:   ; preds = %3
  %.sroa.0.0.copyload2.i = load i64, ptr @_ZN5vcpkg20msgJsonValueNotArrayE, align 8
  call void @llvm.lifetime.start.p0(i64 32, ptr nonnull %4)
  br label %10

_ZNK5vcpkg4Json5Value8is_arrayEv.exit.i:          ; preds = %3
  %8 = load i32, ptr %7, align 8
  %9 = icmp eq i32 %8, 5
  %.sroa.0.0.copyload.i = load i64, ptr @_ZN5vcpkg20msgJsonValueNotArrayE, align 8
  call void @llvm.lifetime.start.p0(i64 32, ptr nonnull %4)
  br i1 %9, label %_ZNR5vcpkg4Json5Value5arrayENS_8LineInfoE.exit, label %10

10:                                               ; preds = %_ZNK5vcpkg4Json5Value8is_arrayEv.exit.i, %_ZNK5vcpkg4Json5Value8is_arrayEv.exit.thread.i
  %.sroa.0.0.copyload3.i = phi i64 [ %.sroa.0.0.copyload2.i, %_ZNK5vcpkg4Json5Value8is_arrayEv.exit.thread.i ], [ %.sroa.0.0.copyload.i, %_ZNK5vcpkg4Json5Value8is_arrayEv.exit.i ]
  invoke void @_ZN5vcpkg3msg6formatIJEJEEENS_15LocalizedStringENS0_8MessageTIJDpT_EEEDpNS0_6TagArgINS_8identityIS4_E4typeET0_EE(ptr dead_on_unwind nonnull writable sret(%"struct.vcpkg::LocalizedString") align 8 %4, i64 %.sroa.0.0.copyload3.i)
          to label %.noexc.i unwind label %14

.noexc.i:                                         ; preds = %10
  invoke void @_ZN5vcpkg6Checks21msg_exit_with_messageERKNS_8LineInfoERKNS_15LocalizedStringE(ptr noundef nonnull align 8 dereferenceable(16) %5, ptr noundef nonnull align 8 dereferenceable(32) %4) #27
          to label %11 unwind label %12

11:                                               ; preds = %.noexc.i
  unreachable

12:                                               ; preds = %.noexc.i
  %13 = landingpad { ptr, i32 }
          catch ptr null
  call void @_ZNSt7__cxx1112basic_stringIcSt11char_traitsIcESaIcEED1Ev(ptr noundef nonnull align 8 dereferenceable(32) %4) #26
  br label %.body.i

14:                                               ; preds = %10
  %15 = landingpad { ptr, i32 }
          catch ptr null
  br label %.body.i

.body.i:                                          ; preds = %14, %12
  %eh.lpad-body.i = phi { ptr, i32 } [ %15, %14 ], [ %13, %12 ]
  %16 = extractvalue { ptr, i32 } %eh.lpad-body.i, 0
  call void @__clang_call_terminate(ptr %16) #25
  unreachable

_ZNR5vcpkg4Json5Value5arrayENS_8LineInfoE.exit:   ; preds = %_ZNK5vcpkg4Json5Value8is_arrayEv.exit.i
  call void @llvm.lifetime.end.p0(i64 32, ptr nonnull %4)
  %17 = getelementptr inbounds i8, ptr %7, i64 8
  call void @llvm.lifetime.end.p0(i64 16, ptr nonnull %5)
  ret ptr %17
}